; Function Attrs: nounwind uwtable
define void @Abc_NtkTimeSetDefaultRequired(ptr noundef captures(none) %0, float noundef %1, float noundef %2) local_unnamed_addr #3 {
  %4 = getelementptr inbounds nuw i8, ptr %0, i64 264
  %5 = load ptr, ptr %4, align 8
  %6 = icmp eq ptr %5, null
  br i1 %6, label %7, label %9

7:                                                ; preds = %3
  %8 = tail call fastcc ptr @Abc_ManTimeStart(ptr noundef nonnull %0)
  store ptr %8, ptr %4, align 8
  br label %9

9:                                                ; preds = %7, %3
  %10 = phi ptr [ %8, %7 ], [ %5, %3 ]
  %11 = getelementptr inbounds nuw i8, ptr %10, i64 8
  store float %1, ptr %11, align 8
  %12 = load ptr, ptr %4, align 8
  %13 = getelementptr inbounds nuw i8, ptr %12, i64 12
  store float %2, ptr %13, align 4
  %14 = getelementptr i8, ptr %0, i64 64
  %.val1517 = load ptr, ptr %14, align 8
  %15 = getelementptr i8, ptr %.val1517, i64 4
  %.val15.val18 = load i32, ptr %15, align 4
  %16 = icmp sgt i32 %.val15.val18, 0
  br i1 %16, label %.lr.ph, label %.critedge

.lr.ph:                                           ; preds = %9, %Abc_NtkTimeSetRequired.exit
  %indvars.iv = phi i64 [ %indvars.iv.next, %Abc_NtkTimeSetRequired.exit ], [ 0, %9 ]
  %.val1520 = phi ptr [ %.val15, %Abc_NtkTimeSetRequired.exit ], [ %.val1517, %9 ]
  %17 = getelementptr i8, ptr %.val1520, i64 8
  %.val16.val = load ptr, ptr %17, align 8
  %18 = getelementptr inbounds nuw ptr, ptr %.val16.val, i64 %indvars.iv
  %19 = load ptr, ptr %18, align 8
  %20 = getelementptr i8, ptr %19, i64 16
  %.val = load i32, ptr %20, align 8
  %21 = load ptr, ptr %4, align 8
  %22 = icmp eq ptr %21, null
  br i1 %22, label %23, label %Abc_NtkTimeSetRequired.exit

23:                                               ; preds = %.lr.ph
  %24 = tail call fastcc ptr @Abc_ManTimeStart(ptr noundef nonnull %0)
  store ptr %24, ptr %4, align 8
  br label %Abc_NtkTimeSetRequired.exit

Abc_NtkTimeSetRequired.exit:                      ; preds = %.lr.ph, %23
  %25 = phi ptr [ %24, %23 ], [ %21, %.lr.ph ]
  %26 = add nsw i32 %.val, 1
  tail call fastcc void @Abc_ManTimeExpand(ptr noundef %25, i32 noundef %26, i32 noundef 1)
  %27 = load ptr, ptr %4, align 8
  %28 = getelementptr inbounds nuw i8, ptr %27, i64 24
  %29 = load ptr, ptr %28, align 8
  %30 = getelementptr inbounds nuw i8, ptr %29, i64 8
  %31 = load ptr, ptr %30, align 8
  %32 = sext i32 %.val to i64
  %33 = getelementptr inbounds ptr, ptr %31, i64 %32
  %34 = load ptr, ptr %33, align 8
  store float %1, ptr %34, align 4
  %35 = getelementptr inbounds nuw i8, ptr %34, i64 4
  store float %2, ptr %35, align 4
  %indvars.iv.next = add nuw nsw i64 %indvars.iv, 1
  %.val15 = load ptr, ptr %14, align 8
  %36 = getelementptr i8, ptr %.val15, i64 4
  %.val15.val = load i32, ptr %36, align 4
  %37 = sext i32 %.val15.val to i64
  %38 = icmp slt i64 %indvars.iv.next, %37
  br i1 %38, label %.lr.ph, label %.critedge, !llvm.loop !8

.critedge:                                        ; preds = %Abc_NtkTimeSetRequired.exit, %9
  ret void
}